; Function Attrs: nounwind uwtable
define void @validateHamilFilePauliParsed(i32 noundef %0, ptr noundef readonly byval(%struct.PauliHamil) align 8 captures(none) %1, ptr noundef captures(none) %2, ptr noundef %3, ptr noundef %4) local_unnamed_addr #3 {
  %.not = icmp eq i32 %0, 0
  br i1 %.not, label %6, label %9

6:                                                ; preds = %5
  tail call void @destroyPauliHamil(ptr noundef nonnull byval(%struct.PauliHamil) align 8 %1) #14
  %7 = tail call i32 @fclose(ptr noundef %2)
  %8 = tail call i32 (ptr, ptr, ...) @sprintf(ptr noundef nonnull dereferenceable(1) @errMsgBuffer, ptr noundef nonnull dereferenceable(1) @.str.63, ptr noundef %3) #14
  tail call void @invalidQuESTInputError(ptr noundef nonnull @errMsgBuffer, ptr noundef %4)
  br label %9

9:                                                ; preds = %6, %5
  ret void
}